target datalayout = "e-m:e-p270:32:32-p271:32:32-p272:64:64-i64:64-i128:128-f80:128-n8:16:32:64-S128"
target triple = "x86_64-pc-linux-gnu"

%struct.GetByteContext = type { ptr, ptr, ptr }

; Function Attrs: alwaysinline nounwind uwtable
define internal i32 @bytestream2_get_bufferu(ptr noundef %0, ptr noundef %1, i32 noundef %2) #2 {
  %4 = alloca ptr, align 8
  %5 = alloca ptr, align 8
  %6 = alloca i32, align 4
  store ptr %0, ptr %4, align 8, !tbaa !12
  store ptr %1, ptr %5, align 8, !tbaa !20
  store i32 %2, ptr %6, align 4, !tbaa !4
  %7 = load ptr, ptr %5, align 8, !tbaa !20
  %8 = load ptr, ptr %4, align 8, !tbaa !12
  %9 = getelementptr inbounds nuw %struct.GetByteContext, ptr %8, i32 0, i32 0
  %10 = load ptr, ptr %9, align 8, !tbaa !18
  %11 = load i32, ptr %6, align 4, !tbaa !4
  %12 = zext i32 %11 to i64
  call void @llvm.memcpy.p0.p0.i64(ptr align 1 %7, ptr align 1 %10, i64 %12, i1 false)
  %13 = load i32, ptr %6, align 4, !tbaa !4
  %14 = load ptr, ptr %4, align 8, !tbaa !12
  %15 = getelementptr inbounds nuw %struct.GetByteContext, ptr %14, i32 0, i32 0
  %16 = load ptr, ptr %15, align 8, !tbaa !18
  %17 = zext i32 %13 to i64
  %18 = getelementptr inbounds nuw i8, ptr %16, i64 %17
  store ptr %18, ptr %15, align 8, !tbaa !18
  %19 = load i32, ptr %6, align 4, !tbaa !4
  ret i32 %19
}

; Function Attrs: alwaysinline nounwind uwtable
define internal i32 @bytestream2_get_bytes_left(ptr noundef %0) #2 {
  %2 = alloca ptr, align 8
  store ptr %0, ptr %2, align 8, !tbaa !12
  %3 = load ptr, ptr %2, align 8, !tbaa !12
  %4 = getelementptr inbounds nuw %struct.GetByteContext, ptr %3, i32 0, i32 1
  %5 = load ptr, ptr %4, align 8, !tbaa !15
  %6 = load ptr, ptr %2, align 8, !tbaa !12
  %7 = getelementptr inbounds nuw %struct.GetByteContext, ptr %6, i32 0, i32 0
  %8 = load ptr, ptr %7, align 8, !tbaa !18
  %9 = ptrtoint ptr %5 to i64
  %10 = ptrtoint ptr %8 to i64
  %11 = sub i64 %9, %10
  %12 = trunc i64 %11 to i32
  ret i32 %12
}

; Function Attrs: nounwind uwtable
define i32 @ff_tadd_string_metadata(i32 noundef %0, ptr noundef %1, ptr noundef %2, i32 noundef %3, ptr noundef %4) #0 {
  %6 = alloca i32, align 4
  %7 = alloca i32, align 4
  %8 = alloca ptr, align 8
  %9 = alloca ptr, align 8
  %10 = alloca i32, align 4
  %11 = alloca ptr, align 8
  %12 = alloca ptr, align 8
  %13 = alloca i32, align 4
  store i32 %0, ptr %7, align 4, !tbaa !4
  store ptr %1, ptr %8, align 8, !tbaa !20
  store ptr %2, ptr %9, align 8, !tbaa !12
  store i32 %3, ptr %10, align 4, !tbaa !4
  store ptr %4, ptr %11, align 8, !tbaa !21
  call void @llvm.lifetime.start.p0(i64 8, ptr %12) #8
  %14 = load ptr, ptr %9, align 8, !tbaa !12
  %15 = call i32 @bytestream2_get_bytes_left(ptr noundef %14)
  %16 = load i32, ptr %7, align 4, !tbaa !4
  %17 = icmp slt i32 %15, %16
  br i1 %17, label %21, label %18

18:                                               ; preds = %5
  %19 = load i32, ptr %7, align 4, !tbaa !4
  %20 = icmp slt i32 %19, 0
  br i1 %20, label %21, label %22

21:                                               ; preds = %18, %5
  store i32 -1094995529, ptr %6, align 4
  store i32 1, ptr %13, align 4
  br label %43

22:                                               ; preds = %18
  %23 = load i32, ptr %7, align 4, !tbaa !4
  %24 = add nsw i32 %23, 1
  %25 = sext i32 %24 to i64
  %26 = call noalias ptr @av_malloc(i64 noundef %25)
  store ptr %26, ptr %12, align 8, !tbaa !20
  %27 = load ptr, ptr %12, align 8, !tbaa !20
  %28 = icmp ne ptr %27, null
  br i1 %28, label %30, label %29

29:                                               ; preds = %22
  store i32 -12, ptr %6, align 4
  store i32 1, ptr %13, align 4
  br label %43

30:                                               ; preds = %22
  %31 = load ptr, ptr %9, align 8, !tbaa !12
  %32 = load ptr, ptr %12, align 8, !tbaa !20
  %33 = load i32, ptr %7, align 4, !tbaa !4
  %34 = call i32 @bytestream2_get_bufferu(ptr noundef %31, ptr noundef %32, i32 noundef %33)
  %35 = load ptr, ptr %12, align 8, !tbaa !20
  %36 = load i32, ptr %7, align 4, !tbaa !4
  %37 = sext i32 %36 to i64
  %38 = getelementptr inbounds i8, ptr %35, i64 %37
  store i8 0, ptr %38, align 1, !tbaa !19
  %39 = load ptr, ptr %11, align 8, !tbaa !21
  %40 = load ptr, ptr %8, align 8, !tbaa !20
  %41 = load ptr, ptr %12, align 8, !tbaa !20
  %42 = call i32 @av_dict_set(ptr noundef %39, ptr noundef %40, ptr noundef %41, i32 noundef 8)
  store i32 0, ptr %6, align 4
  store i32 1, ptr %13, align 4
  br label %43

43:                                               ; preds = %30, %29, %21
  call void @llvm.lifetime.end.p0(i64 8, ptr %12) #8
  %44 = load i32, ptr %6, align 4
  ret i32 %44
}