; Function Attrs: nounwind uwtable
define range(i32 -1094995529, 1) i32 @ff_tadd_string_metadata(i32 noundef %0, ptr noundef %1, ptr noundef captures(none) %2, i32 noundef %3, ptr noundef %4) local_unnamed_addr #3 {
  %6 = getelementptr inbounds nuw i8, ptr %2, i64 8
  %7 = load ptr, ptr %6, align 8, !tbaa !10
  %8 = load ptr, ptr %2, align 8, !tbaa !14
  %9 = ptrtoint ptr %7 to i64
  %10 = ptrtoint ptr %8 to i64
  %11 = sub i64 %9, %10
  %12 = trunc i64 %11 to i32
  %13 = icmp sgt i32 %0, %12
  %14 = icmp slt i32 %0, 0
  %or.cond = or i1 %14, %13
  br i1 %or.cond, label %25, label %15

15:                                               ; preds = %5
  %16 = add nuw nsw i32 %0, 1
  %17 = zext nneg i32 %16 to i64
  %18 = tail call noalias ptr @av_malloc(i64 noundef %17) #8
  %.not = icmp eq ptr %18, null
  br i1 %.not, label %25, label %19

19:                                               ; preds = %15
  %20 = load ptr, ptr %2, align 8, !tbaa !14
  %21 = zext nneg i32 %0 to i64
  tail call void @llvm.memcpy.p0.p0.i64(ptr nonnull align 1 %18, ptr align 1 %20, i64 %21, i1 false)
  %22 = getelementptr inbounds nuw i8, ptr %20, i64 %21
  store ptr %22, ptr %2, align 8, !tbaa !14
  %23 = getelementptr inbounds nuw i8, ptr %18, i64 %21
  store i8 0, ptr %23, align 1, !tbaa !16
  %24 = tail call i32 @av_dict_set(ptr noundef %4, ptr noundef %1, ptr noundef nonnull %18, i32 noundef 8) #8
  br label %25

25:                                               ; preds = %15, %5, %19
  %.0 = phi i32 [ 0, %19 ], [ -1094995529, %5 ], [ -12, %15 ]
  ret i32 %.0
}